target datalayout = "e-m:e-p270:32:32-p271:32:32-p272:64:64-i64:64-i128:128-f80:128-n8:16:32:64-S128"
target triple = "x86_64-pc-linux-gnu"

%struct.uv_udp_s = type { ptr, ptr, i32, ptr, %struct.uv__queue, %union.anon, ptr, i32, i64, i64, ptr, ptr, %struct.uv__io_s, %struct.uv__queue, %struct.uv__queue }
%union.anon = type { [4 x ptr] }
%struct.uv__io_s = type { ptr, %struct.uv__queue, %struct.uv__queue, i32, i32, i32 }
%struct.uv__queue = type { ptr, ptr }
%struct.uv_loop_s = type { ptr, i32, %struct.uv__queue, %union.anon.0, ptr, i32, i64, i32, %struct.uv__queue, %struct.uv__queue, ptr, i32, i32, %struct.uv__queue, %union.pthread_mutex_t, %struct.uv_async_s, %union.pthread_rwlock_t, ptr, %struct.uv__queue, %struct.uv__queue, %struct.uv__queue, %struct.uv__queue, %struct.uv__queue, ptr, %struct.uv__io_s, i32, %struct.anon, i64, i64, [2 x i32], %struct.uv__io_s, %struct.uv_signal_s, i32, %struct.uv__io_s, ptr, i32 }
%union.anon.0 = type { ptr }
%union.pthread_mutex_t = type { %struct.__pthread_mutex_s }
%struct.__pthread_mutex_s = type { i32, i32, i32, i32, i32, i16, i16, %struct.__pthread_internal_list }
%struct.__pthread_internal_list = type { ptr, ptr }
%struct.uv_async_s = type { ptr, ptr, i32, ptr, %struct.uv__queue, %union.anon.1, ptr, i32, ptr, %struct.uv__queue, i32 }
%union.anon.1 = type { [4 x ptr] }
%union.pthread_rwlock_t = type { %struct.__pthread_rwlock_arch_t }
%struct.__pthread_rwlock_arch_t = type { i32, i32, i32, i32, i32, i32, i32, i32, i8, [7 x i8], i64, i32 }
%struct.anon = type { ptr, i32 }
%struct.uv_signal_s = type { ptr, ptr, i32, ptr, %struct.uv__queue, %union.anon.2, ptr, i32, ptr, i32, %struct.anon.3, i32, i32 }
%union.anon.2 = type { [4 x ptr] }
%struct.anon.3 = type { ptr, ptr, ptr, i32 }
%struct.uv_udp_send_s = type { ptr, i32, [6 x ptr], ptr, ptr, %struct.uv__queue, %union.anon.4, i32, ptr, i64, ptr, [4 x %struct.uv_buf_t] }
%union.anon.4 = type { %struct.sockaddr_storage }
%struct.sockaddr_storage = type { i16, [118 x i8], i64 }
%struct.uv_buf_t = type { ptr, i64 }

; Function Attrs: inlinehint nounwind uwtable
define internal void @uv__queue_remove(ptr noundef %0) #3 {
  %2 = alloca ptr, align 8
  store ptr %0, ptr %2, align 8
  %3 = load ptr, ptr %2, align 8
  %4 = getelementptr inbounds nuw %struct.uv__queue, ptr %3, i32 0, i32 0
  %5 = load ptr, ptr %4, align 8
  %6 = load ptr, ptr %2, align 8
  %7 = getelementptr inbounds nuw %struct.uv__queue, ptr %6, i32 0, i32 1
  %8 = load ptr, ptr %7, align 8
  %9 = getelementptr inbounds nuw %struct.uv__queue, ptr %8, i32 0, i32 0
  store ptr %5, ptr %9, align 8
  %10 = load ptr, ptr %2, align 8
  %11 = getelementptr inbounds nuw %struct.uv__queue, ptr %10, i32 0, i32 1
  %12 = load ptr, ptr %11, align 8
  %13 = load ptr, ptr %2, align 8
  %14 = getelementptr inbounds nuw %struct.uv__queue, ptr %13, i32 0, i32 0
  %15 = load ptr, ptr %14, align 8
  %16 = getelementptr inbounds nuw %struct.uv__queue, ptr %15, i32 0, i32 1
  store ptr %12, ptr %16, align 8
  ret void
}

; Function Attrs: inlinehint nounwind uwtable
define internal ptr @uv__queue_head(ptr noundef %0) #3 {
  %2 = alloca ptr, align 8
  store ptr %0, ptr %2, align 8
  %3 = load ptr, ptr %2, align 8
  %4 = getelementptr inbounds nuw %struct.uv__queue, ptr %3, i32 0, i32 0
  %5 = load ptr, ptr %4, align 8
  ret ptr %5
}

; Function Attrs: inlinehint nounwind uwtable
define internal i32 @uv__queue_empty(ptr noundef %0) #3 {
  %2 = alloca ptr, align 8
  store ptr %0, ptr %2, align 8
  %3 = load ptr, ptr %2, align 8
  %4 = load ptr, ptr %2, align 8
  %5 = getelementptr inbounds nuw %struct.uv__queue, ptr %4, i32 0, i32 0
  %6 = load ptr, ptr %5, align 8
  %7 = icmp eq ptr %3, %6
  %8 = zext i1 %7 to i32
  ret i32 %8
}

; Function Attrs: nounwind uwtable
define internal void @uv__udp_run_completed(ptr noundef %0) #0 {
  %2 = alloca ptr, align 8
  %3 = alloca ptr, align 8
  %4 = alloca ptr, align 8
  store ptr %0, ptr %2, align 8
  call void @llvm.lifetime.start.p0(i64 8, ptr %3) #10
  call void @llvm.lifetime.start.p0(i64 8, ptr %4) #10
  %5 = load ptr, ptr %2, align 8
  %6 = getelementptr inbounds nuw %struct.uv_udp_s, ptr %5, i32 0, i32 7
  %7 = load i32, ptr %6, align 8
  %8 = or i32 %7, 16777216
  store i32 %8, ptr %6, align 8
  br label %9

9:                                                ; preds = %84, %64, %1
  %10 = load ptr, ptr %2, align 8
  %11 = getelementptr inbounds nuw %struct.uv_udp_s, ptr %10, i32 0, i32 14
  %12 = call i32 @uv__queue_empty(ptr noundef %11)
  %13 = icmp ne i32 %12, 0
  %14 = xor i1 %13, true
  br i1 %14, label %15, label %85

15:                                               ; preds = %9
  %16 = load ptr, ptr %2, align 8
  %17 = getelementptr inbounds nuw %struct.uv_udp_s, ptr %16, i32 0, i32 14
  %18 = call ptr @uv__queue_head(ptr noundef %17)
  store ptr %18, ptr %4, align 8
  %19 = load ptr, ptr %4, align 8
  call void @uv__queue_remove(ptr noundef %19)
  %20 = load ptr, ptr %4, align 8
  %21 = getelementptr inbounds i8, ptr %20, i64 -80
  store ptr %21, ptr %3, align 8
  br label %22

22:                                               ; preds = %15
  %23 = load ptr, ptr %2, align 8
  %24 = getelementptr inbounds nuw %struct.uv_udp_s, ptr %23, i32 0, i32 1
  %25 = load ptr, ptr %24, align 8
  %26 = getelementptr inbounds nuw %struct.uv_loop_s, ptr %25, i32 0, i32 3
  %27 = load i32, ptr %26, align 8
  %28 = add i32 %27, -1
  store i32 %28, ptr %26, align 8
  br label %29

29:                                               ; preds = %22
  br label %30

30:                                               ; preds = %29
  %31 = load ptr, ptr %3, align 8
  %32 = getelementptr inbounds nuw %struct.uv_udp_send_s, ptr %31, i32 0, i32 8
  %33 = load ptr, ptr %32, align 8
  %34 = load ptr, ptr %3, align 8
  %35 = getelementptr inbounds nuw %struct.uv_udp_send_s, ptr %34, i32 0, i32 7
  %36 = load i32, ptr %35, align 8
  %37 = call i64 @uv__count_bufs(ptr noundef %33, i32 noundef %36)
  %38 = load ptr, ptr %2, align 8
  %39 = getelementptr inbounds nuw %struct.uv_udp_s, ptr %38, i32 0, i32 8
  %40 = load i64, ptr %39, align 8
  %41 = sub i64 %40, %37
  store i64 %41, ptr %39, align 8
  %42 = load ptr, ptr %2, align 8
  %43 = getelementptr inbounds nuw %struct.uv_udp_s, ptr %42, i32 0, i32 9
  %44 = load i64, ptr %43, align 8
  %45 = add i64 %44, -1
  store i64 %45, ptr %43, align 8
  %46 = load ptr, ptr %3, align 8
  %47 = getelementptr inbounds nuw %struct.uv_udp_send_s, ptr %46, i32 0, i32 8
  %48 = load ptr, ptr %47, align 8
  %49 = load ptr, ptr %3, align 8
  %50 = getelementptr inbounds nuw %struct.uv_udp_send_s, ptr %49, i32 0, i32 11
  %51 = getelementptr inbounds [4 x %struct.uv_buf_t], ptr %50, i64 0, i64 0
  %52 = icmp ne ptr %48, %51
  br i1 %52, label %53, label %57

53:                                               ; preds = %30
  %54 = load ptr, ptr %3, align 8
  %55 = getelementptr inbounds nuw %struct.uv_udp_send_s, ptr %54, i32 0, i32 8
  %56 = load ptr, ptr %55, align 8
  call void @uv__free(ptr noundef %56)
  br label %57

57:                                               ; preds = %53, %30
  %58 = load ptr, ptr %3, align 8
  %59 = getelementptr inbounds nuw %struct.uv_udp_send_s, ptr %58, i32 0, i32 8
  store ptr null, ptr %59, align 8
  %60 = load ptr, ptr %3, align 8
  %61 = getelementptr inbounds nuw %struct.uv_udp_send_s, ptr %60, i32 0, i32 10
  %62 = load ptr, ptr %61, align 8
  %63 = icmp eq ptr %62, null
  br i1 %63, label %64, label %65

64:                                               ; preds = %57
  br label %9

65:                                               ; preds = %57
  %66 = load ptr, ptr %3, align 8
  %67 = getelementptr inbounds nuw %struct.uv_udp_send_s, ptr %66, i32 0, i32 9
  %68 = load i64, ptr %67, align 8
  %69 = icmp sge i64 %68, 0
  br i1 %69, label %70, label %75

70:                                               ; preds = %65
  %71 = load ptr, ptr %3, align 8
  %72 = getelementptr inbounds nuw %struct.uv_udp_send_s, ptr %71, i32 0, i32 10
  %73 = load ptr, ptr %72, align 8
  %74 = load ptr, ptr %3, align 8
  call void %73(ptr noundef %74, i32 noundef 0)
  br label %84

75:                                               ; preds = %65
  %76 = load ptr, ptr %3, align 8
  %77 = getelementptr inbounds nuw %struct.uv_udp_send_s, ptr %76, i32 0, i32 10
  %78 = load ptr, ptr %77, align 8
  %79 = load ptr, ptr %3, align 8
  %80 = load ptr, ptr %3, align 8
  %81 = getelementptr inbounds nuw %struct.uv_udp_send_s, ptr %80, i32 0, i32 9
  %82 = load i64, ptr %81, align 8
  %83 = trunc i64 %82 to i32
  call void %78(ptr noundef %79, i32 noundef %83)
  br label %84

84:                                               ; preds = %75, %70
  br label %9

85:                                               ; preds = %9
  %86 = load ptr, ptr %2, align 8
  %87 = getelementptr inbounds nuw %struct.uv_udp_s, ptr %86, i32 0, i32 13
  %88 = call i32 @uv__queue_empty(ptr noundef %87)
  %89 = icmp ne i32 %88, 0
  br i1 %89, label %90, label %132

90:                                               ; preds = %85
  %91 = load ptr, ptr %2, align 8
  %92 = getelementptr inbounds nuw %struct.uv_udp_s, ptr %91, i32 0, i32 1
  %93 = load ptr, ptr %92, align 8
  %94 = load ptr, ptr %2, align 8
  %95 = getelementptr inbounds nuw %struct.uv_udp_s, ptr %94, i32 0, i32 12
  call void @uv__io_stop(ptr noundef %93, ptr noundef %95, i32 noundef 4)
  %96 = load ptr, ptr %2, align 8
  %97 = getelementptr inbounds nuw %struct.uv_udp_s, ptr %96, i32 0, i32 12
  %98 = call i32 @uv__io_active(ptr noundef %97, i32 noundef 1)
  %99 = icmp ne i32 %98, 0
  br i1 %99, label %131, label %100

100:                                              ; preds = %90
  br label %101

101:                                              ; preds = %100
  %102 = load ptr, ptr %2, align 8
  %103 = getelementptr inbounds nuw %struct.uv_udp_s, ptr %102, i32 0, i32 7
  %104 = load i32, ptr %103, align 8
  %105 = and i32 %104, 4
  %106 = icmp eq i32 %105, 0
  br i1 %106, label %107, label %108

107:                                              ; preds = %101
  br label %130

108:                                              ; preds = %101
  %109 = load ptr, ptr %2, align 8
  %110 = getelementptr inbounds nuw %struct.uv_udp_s, ptr %109, i32 0, i32 7
  %111 = load i32, ptr %110, align 8
  %112 = and i32 %111, -5
  store i32 %112, ptr %110, align 8
  %113 = load ptr, ptr %2, align 8
  %114 = getelementptr inbounds nuw %struct.uv_udp_s, ptr %113, i32 0, i32 7
  %115 = load i32, ptr %114, align 8
  %116 = and i32 %115, 8
  %117 = icmp ne i32 %116, 0
  br i1 %117, label %118, label %128

118:                                              ; preds = %108
  br label %119

119:                                              ; preds = %118
  %120 = load ptr, ptr %2, align 8
  %121 = getelementptr inbounds nuw %struct.uv_udp_s, ptr %120, i32 0, i32 1
  %122 = load ptr, ptr %121, align 8
  %123 = getelementptr inbounds nuw %struct.uv_loop_s, ptr %122, i32 0, i32 1
  %124 = load i32, ptr %123, align 8
  %125 = add i32 %124, -1
  store i32 %125, ptr %123, align 8
  br label %126

126:                                              ; preds = %119
  br label %127

127:                                              ; preds = %126
  br label %128

128:                                              ; preds = %127, %108
  br label %129

129:                                              ; preds = %128
  br label %130

130:                                              ; preds = %129, %107
  br label %131

131:                                              ; preds = %130, %90
  br label %132

132:                                              ; preds = %131, %85
  %133 = load ptr, ptr %2, align 8
  %134 = getelementptr inbounds nuw %struct.uv_udp_s, ptr %133, i32 0, i32 7
  %135 = load i32, ptr %134, align 8
  %136 = and i32 %135, -16777217
  store i32 %136, ptr %134, align 8
  call void @llvm.lifetime.end.p0(i64 8, ptr %4) #10
  call void @llvm.lifetime.end.p0(i64 8, ptr %3) #10
  ret void
}