; Function Attrs: nounwind uwtable
define internal fastcc void @uv__udp_run_completed(ptr noundef %0) unnamed_addr #0 {
  %2 = getelementptr inbounds nuw i8, ptr %0, i64 88
  %3 = load i32, ptr %2, align 8
  %4 = or i32 %3, 16777216
  store i32 %4, ptr %2, align 8
  %5 = getelementptr inbounds nuw i8, ptr %0, i64 200
  %6 = load ptr, ptr %5, align 8
  %.not37 = icmp eq ptr %5, %6
  br i1 %.not37, label %._crit_edge, label %.lr.ph

.lr.ph:                                           ; preds = %1
  %7 = getelementptr inbounds nuw i8, ptr %0, i64 8
  %8 = getelementptr inbounds nuw i8, ptr %0, i64 96
  %9 = getelementptr inbounds nuw i8, ptr %0, i64 104
  br label %10

10:                                               ; preds = %.lr.ph, %.backedge
  %11 = phi ptr [ %6, %.lr.ph ], [ %42, %.backedge ]
  %12 = load ptr, ptr %11, align 8
  %13 = getelementptr inbounds nuw i8, ptr %11, i64 8
  %14 = load ptr, ptr %13, align 8
  store ptr %12, ptr %14, align 8
  %15 = load ptr, ptr %13, align 8
  %16 = getelementptr inbounds nuw i8, ptr %12, i64 8
  store ptr %15, ptr %16, align 8
  %17 = getelementptr inbounds i8, ptr %11, i64 -80
  %18 = load ptr, ptr %7, align 8
  %19 = getelementptr inbounds nuw i8, ptr %18, i64 32
  %20 = load i32, ptr %19, align 8
  %21 = add i32 %20, -1
  store i32 %21, ptr %19, align 8
  %22 = getelementptr inbounds nuw i8, ptr %11, i64 152
  %23 = load ptr, ptr %22, align 8
  %24 = getelementptr inbounds nuw i8, ptr %11, i64 144
  %25 = load i32, ptr %24, align 8
  %26 = tail call i64 @uv__count_bufs(ptr noundef %23, i32 noundef %25) #10
  %27 = load i64, ptr %8, align 8
  %28 = sub i64 %27, %26
  store i64 %28, ptr %8, align 8
  %29 = load i64, ptr %9, align 8
  %30 = add i64 %29, -1
  store i64 %30, ptr %9, align 8
  %31 = load ptr, ptr %22, align 8
  %32 = getelementptr inbounds nuw i8, ptr %11, i64 176
  %.not35 = icmp eq ptr %31, %32
  br i1 %.not35, label %34, label %33

33:                                               ; preds = %10
  tail call void @uv__free(ptr noundef %31) #10
  br label %34

34:                                               ; preds = %33, %10
  store ptr null, ptr %22, align 8
  %35 = getelementptr inbounds nuw i8, ptr %11, i64 168
  %36 = load ptr, ptr %35, align 8
  %37 = icmp eq ptr %36, null
  br i1 %37, label %.backedge, label %.backedge.sink.split

.backedge.sink.split:                             ; preds = %34
  %38 = getelementptr inbounds nuw i8, ptr %11, i64 160
  %39 = load i64, ptr %38, align 8
  %40 = icmp sgt i64 %39, -1
  %41 = trunc i64 %39 to i32
  %.sink = select i1 %40, i32 0, i32 %41
  tail call void %36(ptr noundef nonnull %17, i32 noundef %.sink) #10
  br label %.backedge

.backedge:                                        ; preds = %.backedge.sink.split, %34
  %42 = load ptr, ptr %5, align 8
  %.not = icmp eq ptr %5, %42
  br i1 %.not, label %._crit_edge, label %10

._crit_edge:                                      ; preds = %.backedge, %1
  %43 = getelementptr inbounds nuw i8, ptr %0, i64 184
  %44 = load ptr, ptr %43, align 8
  %.not36 = icmp eq ptr %43, %44
  br i1 %.not36, label %45, label %62

45:                                               ; preds = %._crit_edge
  %46 = getelementptr inbounds nuw i8, ptr %0, i64 8
  %47 = load ptr, ptr %46, align 8
  %48 = getelementptr inbounds nuw i8, ptr %0, i64 128
  tail call void @uv__io_stop(ptr noundef %47, ptr noundef nonnull %48, i32 noundef 4) #10
  %49 = tail call i32 @uv__io_active(ptr noundef nonnull %48, i32 noundef 1) #10
  %.not33 = icmp eq i32 %49, 0
  br i1 %.not33, label %50, label %62

50:                                               ; preds = %45
  %51 = load i32, ptr %2, align 8
  %52 = and i32 %51, 4
  %53 = icmp eq i32 %52, 0
  br i1 %53, label %62, label %54

54:                                               ; preds = %50
  %55 = and i32 %51, -5
  store i32 %55, ptr %2, align 8
  %56 = and i32 %51, 8
  %.not34 = icmp eq i32 %56, 0
  br i1 %.not34, label %62, label %57

57:                                               ; preds = %54
  %58 = load ptr, ptr %46, align 8
  %59 = getelementptr inbounds nuw i8, ptr %58, i64 8
  %60 = load i32, ptr %59, align 8
  %61 = add i32 %60, -1
  store i32 %61, ptr %59, align 8
  br label %62

62:                                               ; preds = %45, %57, %54, %50, %._crit_edge
  %63 = load i32, ptr %2, align 8
  %64 = and i32 %63, -16777217
  store i32 %64, ptr %2, align 8
  ret void
}